target datalayout = "e-m:e-p270:32:32-p271:32:32-p272:64:64-i64:64-i128:128-f80:128-n8:16:32:64-S128"
target triple = "x86_64-pc-linux-gnu"

%struct._proto_node = type { ptr, ptr, ptr, ptr, ptr, ptr, ptr }
%struct.field_info = type { ptr, i32, i32, i32, i32, i32, i32, ptr, ptr, ptr, i32, i32 }

@hf_cimi_imsi = internal global i32 0, align 4

; Function Attrs: inlinehint nounwind null_pointer_is_valid sspstrong uwtable
define internal void @proto_item_set_hidden(ptr noundef %0) #3 {
  %2 = alloca ptr, align 8
  store ptr %0, ptr %2, align 8
  %3 = load ptr, ptr %2, align 8
  %4 = icmp ne ptr %3, null
  br i1 %4, label %5, label %24

5:                                                ; preds = %1
  br label %6

6:                                                ; preds = %5
  %7 = load ptr, ptr %2, align 8
  %8 = getelementptr inbounds nuw %struct._proto_node, ptr %7, i32 0, i32 5
  %9 = load ptr, ptr %8, align 8
  %10 = icmp ne ptr %9, null
  br i1 %10, label %11, label %22

11:                                               ; preds = %6
  %12 = load ptr, ptr %2, align 8
  %13 = getelementptr inbounds nuw %struct._proto_node, ptr %12, i32 0, i32 5
  %14 = load ptr, ptr %13, align 8
  %15 = getelementptr inbounds nuw %struct.field_info, ptr %14, i32 0, i32 6
  %16 = load i32, ptr %15, align 4
  %17 = or i32 %16, 1
  %18 = load ptr, ptr %2, align 8
  %19 = getelementptr inbounds nuw %struct._proto_node, ptr %18, i32 0, i32 5
  %20 = load ptr, ptr %19, align 8
  %21 = getelementptr inbounds nuw %struct.field_info, ptr %20, i32 0, i32 6
  store i32 %17, ptr %21, align 4
  br label %22

22:                                               ; preds = %11, %6
  br label %23

23:                                               ; preds = %22
  br label %24

24:                                               ; preds = %23, %1
  ret void
}

; Function Attrs: nounwind null_pointer_is_valid sspstrong uwtable
define internal zeroext i1 @check_cimi(i32 noundef %0, i16 noundef zeroext %1) #4 {
  %3 = alloca i1, align 1
  %4 = alloca i32, align 4
  %5 = alloca i16, align 2
  store i32 %0, ptr %4, align 4
  store i16 %1, ptr %5, align 2
  %6 = load i32, ptr %4, align 4
  %7 = icmp eq i32 %6, 2
  br i1 %7, label %8, label %17

8:                                                ; preds = %2
  %9 = load i16, ptr %5, align 2
  %10 = zext i16 %9 to i32
  %11 = icmp eq i32 %10, 13
  br i1 %11, label %16, label %12

12:                                               ; preds = %8
  %13 = load i16, ptr %5, align 2
  %14 = zext i16 %13 to i32
  %15 = icmp eq i32 %14, 15679
  br i1 %15, label %16, label %17

16:                                               ; preds = %12, %8
  store i1 true, ptr %3, align 1
  br label %26

17:                                               ; preds = %12, %2
  %18 = load i32, ptr %4, align 4
  %19 = icmp eq i32 %18, 1
  br i1 %19, label %20, label %25

20:                                               ; preds = %17
  %21 = load i16, ptr %5, align 2
  %22 = zext i16 %21 to i32
  %23 = icmp eq i32 %22, 58
  br i1 %23, label %24, label %25

24:                                               ; preds = %20
  store i1 true, ptr %3, align 1
  br label %26

25:                                               ; preds = %20, %17
  store i1 false, ptr %3, align 1
  br label %26

26:                                               ; preds = %25, %24, %16
  %27 = load i1, ptr %3, align 1
  ret i1 %27
}

; Function Attrs: null_pointer_is_valid sspstrong uwtable
define internal zeroext i1 @dissect_cimi_parameter(ptr noundef %0, ptr noundef %1, ptr noundef %2, i32 noundef %3, i32 noundef %4, i16 noundef zeroext %5, ptr noundef %6, i32 noundef %7, i32 noundef %8, ptr noundef %9, ptr noundef %10) #0 {
  %12 = alloca i1, align 1
  %13 = alloca ptr, align 8
  %14 = alloca ptr, align 8
  %15 = alloca ptr, align 8
  %16 = alloca i32, align 4
  %17 = alloca i32, align 4
  %18 = alloca i16, align 2
  %19 = alloca ptr, align 8
  %20 = alloca i32, align 4
  %21 = alloca i32, align 4
  %22 = alloca ptr, align 8
  %23 = alloca ptr, align 8
  %24 = alloca ptr, align 8
  %25 = alloca i32, align 4
  store ptr %0, ptr %13, align 8
  store ptr %1, ptr %14, align 8
  store ptr %2, ptr %15, align 8
  store i32 %3, ptr %16, align 4
  store i32 %4, ptr %17, align 4
  store i16 %5, ptr %18, align 2
  store ptr %6, ptr %19, align 8
  store i32 %7, ptr %20, align 4
  store i32 %8, ptr %21, align 4
  store ptr %9, ptr %22, align 8
  store ptr %10, ptr %23, align 8
  call void @llvm.lifetime.start.p0(i64 8, ptr %24) #12
  %26 = load i32, ptr %17, align 4
  %27 = load i16, ptr %18, align 2
  %28 = call zeroext i1 @check_cimi(i32 noundef %26, i16 noundef zeroext %27)
  br i1 %28, label %30, label %29

29:                                               ; preds = %11
  store i1 false, ptr %12, align 1
  store i32 1, ptr %25, align 4
  br label %52

30:                                               ; preds = %11
  %31 = load i32, ptr %17, align 4
  %32 = icmp eq i32 %31, 2
  br i1 %32, label %33, label %34

33:                                               ; preds = %30
  store i1 false, ptr %12, align 1
  store i32 1, ptr %25, align 4
  br label %52

34:                                               ; preds = %30
  %35 = load i32, ptr %20, align 4
  %36 = icmp ugt i32 %35, 0
  br i1 %36, label %37, label %38

37:                                               ; preds = %34
  store i1 false, ptr %12, align 1
  store i32 1, ptr %25, align 4
  br label %52

38:                                               ; preds = %34
  %39 = load ptr, ptr %15, align 8
  %40 = load i32, ptr @hf_cimi_imsi, align 4
  %41 = load ptr, ptr %13, align 8
  %42 = load i32, ptr %16, align 4
  %43 = load i32, ptr %21, align 4
  %44 = call ptr @proto_tree_add_item(ptr noundef %39, i32 noundef %40, ptr noundef %41, i32 noundef %42, i32 noundef %43, i32 noundef 0)
  store ptr %44, ptr %24, align 8
  %45 = load ptr, ptr %24, align 8
  call void @proto_item_set_hidden(ptr noundef %45)
  %46 = load ptr, ptr %13, align 8
  %47 = load ptr, ptr %14, align 8
  %48 = load ptr, ptr %15, align 8
  %49 = load i32, ptr %16, align 4
  %50 = load i32, ptr %21, align 4
  %51 = call ptr @dissect_e212_utf8_imsi(ptr noundef %46, ptr noundef %47, ptr noundef %48, i32 noundef %49, i32 noundef %50)
  store i1 true, ptr %12, align 1
  store i32 1, ptr %25, align 4
  br label %52

52:                                               ; preds = %38, %37, %33, %29
  call void @llvm.lifetime.end.p0(i64 8, ptr %24) #12
  %53 = load i1, ptr %12, align 1
  ret i1 %53
}