; Function Attrs: null_pointer_is_valid sspstrong uwtable
define internal noundef zeroext i1 @dissect_cimi_parameter(ptr noundef %0, ptr noundef %1, ptr noundef %2, i32 noundef %3, i32 noundef %4, i16 noundef zeroext %5, ptr readnone captures(none) %6, i32 noundef %7, i32 noundef %8, ptr readnone captures(none) %9, ptr readnone captures(none) %10) #0 {
  %12 = icmp eq i32 %4, 2
  br i1 %12, label %check_cimi.exit.thread, label %check_cimi.exit

check_cimi.exit:                                  ; preds = %11
  %13 = icmp eq i32 %4, 1
  %14 = icmp eq i16 %5, 58
  %or.cond5.i.not.not = and i1 %13, %14
  %.not = icmp eq i32 %7, 0
  %or.cond15 = and i1 %or.cond5.i.not.not, %.not
  br i1 %or.cond15, label %15, label %check_cimi.exit.thread

15:                                               ; preds = %check_cimi.exit
  %16 = load i32, ptr @hf_cimi_imsi, align 4
  %17 = tail call ptr @proto_tree_add_item(ptr noundef %2, i32 noundef %16, ptr noundef %0, i32 noundef %3, i32 noundef %8, i32 noundef 0)
  %.not.i = icmp eq ptr %17, null
  br i1 %.not.i, label %proto_item_set_hidden.exit, label %18

18:                                               ; preds = %15
  %19 = getelementptr inbounds nuw i8, ptr %17, i64 40
  %20 = load ptr, ptr %19, align 8
  %.not5.i = icmp eq ptr %20, null
  br i1 %.not5.i, label %proto_item_set_hidden.exit, label %21

21:                                               ; preds = %18
  %22 = getelementptr inbounds nuw i8, ptr %20, i64 28
  %23 = load i32, ptr %22, align 4
  %24 = or i32 %23, 1
  store i32 %24, ptr %22, align 4
  br label %proto_item_set_hidden.exit

proto_item_set_hidden.exit:                       ; preds = %15, %18, %21
  %25 = tail call ptr @dissect_e212_utf8_imsi(ptr noundef %0, ptr noundef %1, ptr noundef %2, i32 noundef %3, i32 noundef %8)
  br label %check_cimi.exit.thread

check_cimi.exit.thread:                           ; preds = %11, %check_cimi.exit, %proto_item_set_hidden.exit
  %.0 = phi i1 [ true, %proto_item_set_hidden.exit ], [ false, %check_cimi.exit ], [ false, %11 ]
  ret i1 %.0
}